target datalayout = "e-m:e-p270:32:32-p271:32:32-p272:64:64-i64:64-i128:128-f80:128-n8:16:32:64-S128"
target triple = "x86_64-unknown-linux-gnu"

%class.hilbert_basis = type <{ ptr, %class.vector, %class.svector, %class.vector.1, %class.svector.2, %class.svector.2, %class.svector.2, %class.svector.2, %class.svector.2, ptr, ptr, %"struct.hilbert_basis::stats", [4 x i8], ptr, %class.svector.4, i32, i8, i8, i8, i8 }>
%class.vector = type { ptr }
%class.svector = type { %class.vector.0 }
%class.vector.0 = type { ptr }
%class.vector.1 = type { ptr }
%class.svector.2 = type { %class.vector.3 }
%class.vector.3 = type { ptr }
%"struct.hilbert_basis::stats" = type { i32, i32, i32 }
%class.svector.4 = type { %class.vector.5 }
%class.vector.5 = type { ptr }
%"struct.hilbert_basis::offset_t" = type { i32 }
%class.checked_int64 = type { i64 }
%"class.hilbert_basis::values" = type { ptr }
%"class.hilbert_basis::iterator" = type <{ ptr, i32, [4 x i8] }>

; Function Attrs: mustprogress nounwind uwtable
define linkonce_odr hidden void @_ZN13hilbert_basis6valuesC2EjP13checked_int64ILb1EE(ptr noundef nonnull align 8 dereferenceable(8) %this, i32 noundef %offset, ptr noundef %v) unnamed_addr #5 comdat align 2 {
entry:
  %this.addr = alloca ptr, align 8
  %offset.addr = alloca i32, align 4
  %v.addr = alloca ptr, align 8
  store ptr %this, ptr %this.addr, align 8
  store i32 %offset, ptr %offset.addr, align 4
  store ptr %v, ptr %v.addr, align 8
  %this1 = load ptr, ptr %this.addr, align 8
  %m_values = getelementptr inbounds %"class.hilbert_basis::values", ptr %this1, i32 0, i32 0
  %0 = load ptr, ptr %v.addr, align 8
  %1 = load i32, ptr %offset.addr, align 4
  %idx.ext = zext i32 %1 to i64
  %add.ptr = getelementptr inbounds %class.checked_int64, ptr %0, i64 %idx.ext
  store ptr %add.ptr, ptr %m_values, align 8
  ret void
}

; Function Attrs: mustprogress nounwind uwtable
define linkonce_odr hidden noundef ptr @_ZNK6vectorI13checked_int64ILb1EELb1EjE4dataEv(ptr noundef nonnull align 8 dereferenceable(8) %this) #5 comdat align 2 {
entry:
  %this.addr = alloca ptr, align 8
  store ptr %this, ptr %this.addr, align 8
  %this1 = load ptr, ptr %this.addr, align 8
  %m_data = getelementptr inbounds %class.vector.1, ptr %this1, i32 0, i32 0
  %0 = load ptr, ptr %m_data, align 8
  ret ptr %0
}

; Function Attrs: mustprogress nounwind uwtable
define linkonce_odr hidden noundef i32 @_ZNK6vectorIS_I13checked_int64ILb1EELb1EjELb1EjE4sizeEv(ptr noundef nonnull align 8 dereferenceable(8) %this) #5 comdat align 2 {
entry:
  %retval = alloca i32, align 4
  %this.addr = alloca ptr, align 8
  store ptr %this, ptr %this.addr, align 8
  %this1 = load ptr, ptr %this.addr, align 8
  %m_data = getelementptr inbounds %class.vector, ptr %this1, i32 0, i32 0
  %0 = load ptr, ptr %m_data, align 8
  %cmp = icmp eq ptr %0, null
  br i1 %cmp, label %if.then, label %if.end

if.then:                                          ; preds = %entry
  store i32 0, ptr %retval, align 4
  br label %return

if.end:                                           ; preds = %entry
  %m_data2 = getelementptr inbounds %class.vector, ptr %this1, i32 0, i32 0
  %1 = load ptr, ptr %m_data2, align 8
  %arrayidx = getelementptr inbounds i32, ptr %1, i64 -1
  %2 = load i32, ptr %arrayidx, align 4
  store i32 %2, ptr %retval, align 4
  br label %return

return:                                           ; preds = %if.end, %if.then
  %3 = load i32, ptr %retval, align 4
  ret i32 %3
}

; Function Attrs: mustprogress nounwind uwtable
define linkonce_odr hidden noundef nonnull align 4 dereferenceable(4) ptr @_ZNK6vectorIN13hilbert_basis8offset_tELb0EjEixEj(ptr noundef nonnull align 8 dereferenceable(8) %this, i32 noundef %idx) #5 comdat align 2 {
entry:
  %this.addr = alloca ptr, align 8
  %idx.addr = alloca i32, align 4
  store ptr %this, ptr %this.addr, align 8
  store i32 %idx, ptr %idx.addr, align 4
  %this1 = load ptr, ptr %this.addr, align 8
  %m_data = getelementptr inbounds %class.vector.3, ptr %this1, i32 0, i32 0
  %0 = load ptr, ptr %m_data, align 8
  %1 = load i32, ptr %idx.addr, align 4
  %idxprom = zext i32 %1 to i64
  %arrayidx = getelementptr inbounds %"struct.hilbert_basis::offset_t", ptr %0, i64 %idxprom
  ret ptr %arrayidx
}

; Function Attrs: mustprogress nounwind uwtable
define linkonce_odr hidden noundef i32 @_ZNK6vectorIN13hilbert_basis8offset_tELb0EjE4sizeEv(ptr noundef nonnull align 8 dereferenceable(8) %this) #5 comdat align 2 {
entry:
  %retval = alloca i32, align 4
  %this.addr = alloca ptr, align 8
  store ptr %this, ptr %this.addr, align 8
  %this1 = load ptr, ptr %this.addr, align 8
  %m_data = getelementptr inbounds %class.vector.3, ptr %this1, i32 0, i32 0
  %0 = load ptr, ptr %m_data, align 8
  %cmp = icmp eq ptr %0, null
  br i1 %cmp, label %if.then, label %if.end

if.then:                                          ; preds = %entry
  store i32 0, ptr %retval, align 4
  br label %return

if.end:                                           ; preds = %entry
  %m_data2 = getelementptr inbounds %class.vector.3, ptr %this1, i32 0, i32 0
  %1 = load ptr, ptr %m_data2, align 8
  %arrayidx = getelementptr inbounds i32, ptr %1, i64 -1
  %2 = load i32, ptr %arrayidx, align 4
  store i32 %2, ptr %retval, align 4
  br label %return

return:                                           ; preds = %if.end, %if.then
  %3 = load i32, ptr %retval, align 4
  ret i32 %3
}

; Function Attrs: mustprogress nounwind uwtable
define linkonce_odr hidden void @_ZN13hilbert_basis8iteratorC2ERKS_j(ptr noundef nonnull align 8 dereferenceable(12) %this, ptr noundef nonnull align 8 dereferenceable(127) %hb, i32 noundef %idx) unnamed_addr #5 comdat align 2 {
entry:
  %this.addr = alloca ptr, align 8
  %hb.addr = alloca ptr, align 8
  %idx.addr = alloca i32, align 4
  store ptr %this, ptr %this.addr, align 8
  store ptr %hb, ptr %hb.addr, align 8
  store i32 %idx, ptr %idx.addr, align 4
  %this1 = load ptr, ptr %this.addr, align 8
  %hb2 = getelementptr inbounds %"class.hilbert_basis::iterator", ptr %this1, i32 0, i32 0
  %0 = load ptr, ptr %hb.addr, align 8
  store ptr %0, ptr %hb2, align 8
  %m_idx = getelementptr inbounds %"class.hilbert_basis::iterator", ptr %this1, i32 0, i32 1
  %1 = load i32, ptr %idx.addr, align 4
  store i32 %1, ptr %m_idx, align 8
  ret void
}

; Function Attrs: mustprogress nounwind uwtable
define linkonce_odr hidden noundef nonnull align 8 dereferenceable(12) ptr @_ZN13hilbert_basis8iteratorppEv(ptr noundef nonnull align 8 dereferenceable(12) %this) #5 comdat align 2 {
entry:
  %this.addr = alloca ptr, align 8
  store ptr %this, ptr %this.addr, align 8
  %this1 = load ptr, ptr %this.addr, align 8
  %m_idx = getelementptr inbounds %"class.hilbert_basis::iterator", ptr %this1, i32 0, i32 1
  %0 = load i32, ptr %m_idx, align 8
  %inc = add i32 %0, 1
  store i32 %inc, ptr %m_idx, align 8
  ret ptr %this1
}

; Function Attrs: mustprogress nounwind uwtable
define linkonce_odr hidden noundef zeroext i1 @_ZNK13checked_int64ILb1EE6is_negEv(ptr noundef nonnull align 8 dereferenceable(8) %this) #5 comdat align 2 {
entry:
  %this.addr = alloca ptr, align 8
  store ptr %this, ptr %this.addr, align 8
  %this1 = load ptr, ptr %this.addr, align 8
  %m_value = getelementptr inbounds %class.checked_int64, ptr %this1, i32 0, i32 0
  %0 = load i64, ptr %m_value, align 8
  %cmp = icmp slt i64 %0, 0
  ret i1 %cmp
}

; Function Attrs: mustprogress nounwind uwtable
define linkonce_odr hidden noundef zeroext i1 @_ZNK13checked_int64ILb1EE6is_posEv(ptr noundef nonnull align 8 dereferenceable(8) %this) #5 comdat align 2 {
entry:
  %this.addr = alloca ptr, align 8
  store ptr %this, ptr %this.addr, align 8
  %this1 = load ptr, ptr %this.addr, align 8
  %m_value = getelementptr inbounds %class.checked_int64, ptr %this1, i32 0, i32 0
  %0 = load i64, ptr %m_value, align 8
  %cmp = icmp sgt i64 %0, 0
  ret i1 %cmp
}

; Function Attrs: mustprogress uwtable
define hidden ptr @_ZNK13hilbert_basis3vecENS_8offset_tE(ptr noundef nonnull align 8 dereferenceable(127) %this, i32 %offs.coerce) #4 align 2 {
entry:
  %retval = alloca %"class.hilbert_basis::values", align 8
  %offs = alloca %"struct.hilbert_basis::offset_t", align 4
  %this.addr = alloca ptr, align 8
  %coerce.dive = getelementptr inbounds %"struct.hilbert_basis::offset_t", ptr %offs, i32 0, i32 0
  store i32 %offs.coerce, ptr %coerce.dive, align 4
  store ptr %this, ptr %this.addr, align 8
  %this1 = load ptr, ptr %this.addr, align 8
  %m_ineqs = getelementptr inbounds %class.hilbert_basis, ptr %this1, i32 0, i32 1
  %call = call noundef i32 @_ZNK6vectorIS_I13checked_int64ILb1EELb1EjELb1EjE4sizeEv(ptr noundef nonnull align 8 dereferenceable(8) %m_ineqs)
  %m_store = getelementptr inbounds %class.hilbert_basis, ptr %this1, i32 0, i32 3
  %call2 = call noundef ptr @_ZNK6vectorI13checked_int64ILb1EELb1EjE4dataEv(ptr noundef nonnull align 8 dereferenceable(8) %m_store)
  %m_offset = getelementptr inbounds %"struct.hilbert_basis::offset_t", ptr %offs, i32 0, i32 0
  %0 = load i32, ptr %m_offset, align 4
  %idx.ext = zext i32 %0 to i64
  %add.ptr = getelementptr inbounds %class.checked_int64, ptr %call2, i64 %idx.ext
  call void @_ZN13hilbert_basis6valuesC2EjP13checked_int64ILb1EE(ptr noundef nonnull align 8 dereferenceable(8) %retval, i32 noundef %call, ptr noundef %add.ptr)
  %coerce.dive3 = getelementptr inbounds %"class.hilbert_basis::values", ptr %retval, i32 0, i32 0
  %1 = load ptr, ptr %coerce.dive3, align 8
  ret ptr %1
}

; Function Attrs: mustprogress uwtable
define linkonce_odr hidden i32 @_ZNK13hilbert_basis8iteratordeEv(ptr noundef nonnull align 8 dereferenceable(12) %this) #4 comdat align 2 {
entry:
  %retval = alloca %"struct.hilbert_basis::offset_t", align 4
  %this.addr = alloca ptr, align 8
  store ptr %this, ptr %this.addr, align 8
  %this1 = load ptr, ptr %this.addr, align 8
  %hb = getelementptr inbounds %"class.hilbert_basis::iterator", ptr %this1, i32 0, i32 0
  %0 = load ptr, ptr %hb, align 8
  %m_basis = getelementptr inbounds %class.hilbert_basis, ptr %0, i32 0, i32 4
  %m_idx = getelementptr inbounds %"class.hilbert_basis::iterator", ptr %this1, i32 0, i32 1
  %1 = load i32, ptr %m_idx, align 8
  %call = call noundef nonnull align 4 dereferenceable(4) ptr @_ZNK6vectorIN13hilbert_basis8offset_tELb0EjEixEj(ptr noundef nonnull align 8 dereferenceable(8) %m_basis, i32 noundef %1)
  call void @llvm.memcpy.p0.p0.i64(ptr align 4 %retval, ptr align 4 %call, i64 4, i1 false)
  %coerce.dive = getelementptr inbounds %"struct.hilbert_basis::offset_t", ptr %retval, i32 0, i32 0
  %2 = load i32, ptr %coerce.dive, align 4
  ret i32 %2
}

; Function Attrs: mustprogress nounwind uwtable
define linkonce_odr hidden noundef zeroext i1 @_ZNK13hilbert_basis8iteratorneERKS0_(ptr noundef nonnull align 8 dereferenceable(12) %this, ptr noundef nonnull align 8 dereferenceable(12) %it) #5 comdat align 2 {
entry:
  %this.addr = alloca ptr, align 8
  %it.addr = alloca ptr, align 8
  store ptr %this, ptr %this.addr, align 8
  store ptr %it, ptr %it.addr, align 8
  %this1 = load ptr, ptr %this.addr, align 8
  %m_idx = getelementptr inbounds %"class.hilbert_basis::iterator", ptr %this1, i32 0, i32 1
  %0 = load i32, ptr %m_idx, align 8
  %1 = load ptr, ptr %it.addr, align 8
  %m_idx2 = getelementptr inbounds %"class.hilbert_basis::iterator", ptr %1, i32 0, i32 1
  %2 = load i32, ptr %m_idx2, align 8
  %cmp = icmp ne i32 %0, %2
  ret i1 %cmp
}

; Function Attrs: mustprogress uwtable
define linkonce_odr hidden { ptr, i32 } @_ZNK13hilbert_basis3endEv(ptr noundef nonnull align 8 dereferenceable(127) %this) #4 comdat align 2 {
entry:
  %retval = alloca %"class.hilbert_basis::iterator", align 8
  %this.addr = alloca ptr, align 8
  store ptr %this, ptr %this.addr, align 8
  %this1 = load ptr, ptr %this.addr, align 8
  %m_basis = getelementptr inbounds %class.hilbert_basis, ptr %this1, i32 0, i32 4
  %call = call noundef i32 @_ZNK6vectorIN13hilbert_basis8offset_tELb0EjE4sizeEv(ptr noundef nonnull align 8 dereferenceable(8) %m_basis)
  call void @_ZN13hilbert_basis8iteratorC2ERKS_j(ptr noundef nonnull align 8 dereferenceable(12) %retval, ptr noundef nonnull align 8 dereferenceable(127) %this1, i32 noundef %call)
  %0 = load { ptr, i32 }, ptr %retval, align 8
  ret { ptr, i32 } %0
}

; Function Attrs: mustprogress uwtable
define linkonce_odr hidden { ptr, i32 } @_ZNK13hilbert_basis5beginEv(ptr noundef nonnull align 8 dereferenceable(127) %this) #4 comdat align 2 {
entry:
  %retval = alloca %"class.hilbert_basis::iterator", align 8
  %this.addr = alloca ptr, align 8
  store ptr %this, ptr %this.addr, align 8
  %this1 = load ptr, ptr %this.addr, align 8
  call void @_ZN13hilbert_basis8iteratorC2ERKS_j(ptr noundef nonnull align 8 dereferenceable(12) %retval, ptr noundef nonnull align 8 dereferenceable(127) %this1, i32 noundef 0)
  %0 = load { ptr, i32 }, ptr %retval, align 8
  ret { ptr, i32 } %0
}

; Function Attrs: mustprogress uwtable
define hidden noundef i32 @_ZN13hilbert_basis16get_ineq_productERK6vectorI13checked_int64ILb1EELb1EjE(ptr noundef nonnull align 8 dereferenceable(127) %this, ptr noundef nonnull align 8 dereferenceable(8) %ineq) #4 align 2 {
entry:
  %this.addr = alloca ptr, align 8
  %ineq.addr = alloca ptr, align 8
  %num_pos = alloca i32, align 4
  %num_neg = alloca i32, align 4
  %it = alloca %"class.hilbert_basis::iterator", align 8
  %ref.tmp = alloca %"class.hilbert_basis::iterator", align 8
  %v = alloca %"class.hilbert_basis::values", align 8
  %agg.tmp = alloca %"struct.hilbert_basis::offset_t", align 4
  %w = alloca %class.checked_int64, align 8
  store ptr %this, ptr %this.addr, align 8
  store ptr %ineq, ptr %ineq.addr, align 8
  %this1 = load ptr, ptr %this.addr, align 8
  store i32 0, ptr %num_pos, align 4
  store i32 0, ptr %num_neg, align 4
  %call = call { ptr, i32 } @_ZNK13hilbert_basis5beginEv(ptr noundef nonnull align 8 dereferenceable(127) %this1)
  %0 = getelementptr inbounds { ptr, i32 }, ptr %it, i32 0, i32 0
  %1 = extractvalue { ptr, i32 } %call, 0
  store ptr %1, ptr %0, align 8
  %2 = getelementptr inbounds { ptr, i32 }, ptr %it, i32 0, i32 1
  %3 = extractvalue { ptr, i32 } %call, 1
  store i32 %3, ptr %2, align 8
  br label %for.cond

for.cond:                                         ; preds = %for.inc, %entry
  %call2 = call { ptr, i32 } @_ZNK13hilbert_basis3endEv(ptr noundef nonnull align 8 dereferenceable(127) %this1)
  %4 = getelementptr inbounds { ptr, i32 }, ptr %ref.tmp, i32 0, i32 0
  %5 = extractvalue { ptr, i32 } %call2, 0
  store ptr %5, ptr %4, align 8
  %6 = getelementptr inbounds { ptr, i32 }, ptr %ref.tmp, i32 0, i32 1
  %7 = extractvalue { ptr, i32 } %call2, 1
  store i32 %7, ptr %6, align 8
  %call3 = call noundef zeroext i1 @_ZNK13hilbert_basis8iteratorneERKS0_(ptr noundef nonnull align 8 dereferenceable(12) %it, ptr noundef nonnull align 8 dereferenceable(12) %ref.tmp)
  br i1 %call3, label %for.body, label %for.end

for.body:                                         ; preds = %for.cond
  %call4 = call i32 @_ZNK13hilbert_basis8iteratordeEv(ptr noundef nonnull align 8 dereferenceable(12) %it)
  %coerce.dive = getelementptr inbounds %"struct.hilbert_basis::offset_t", ptr %agg.tmp, i32 0, i32 0
  store i32 %call4, ptr %coerce.dive, align 4
  %coerce.dive5 = getelementptr inbounds %"struct.hilbert_basis::offset_t", ptr %agg.tmp, i32 0, i32 0
  %8 = load i32, ptr %coerce.dive5, align 4
  %call6 = call ptr @_ZNK13hilbert_basis3vecENS_8offset_tE(ptr noundef nonnull align 8 dereferenceable(127) %this1, i32 %8)
  %coerce.dive7 = getelementptr inbounds %"class.hilbert_basis::values", ptr %v, i32 0, i32 0
  store ptr %call6, ptr %coerce.dive7, align 8
  %9 = load ptr, ptr %ineq.addr, align 8
  %call8 = call i64 @_ZNK13hilbert_basis10get_weightERKNS_6valuesERK6vectorI13checked_int64ILb1EELb1EjE(ptr noundef nonnull align 8 dereferenceable(127) %this1, ptr noundef nonnull align 8 dereferenceable(8) %v, ptr noundef nonnull align 8 dereferenceable(8) %9)
  %coerce.dive9 = getelementptr inbounds %class.checked_int64, ptr %w, i32 0, i32 0
  store i64 %call8, ptr %coerce.dive9, align 8
  %call10 = call noundef zeroext i1 @_ZNK13checked_int64ILb1EE6is_posEv(ptr noundef nonnull align 8 dereferenceable(8) %w)
  br i1 %call10, label %if.then, label %if.else

if.then:                                          ; preds = %for.body
  %10 = load i32, ptr %num_pos, align 4
  %inc = add i32 %10, 1
  store i32 %inc, ptr %num_pos, align 4
  br label %if.end14

if.else:                                          ; preds = %for.body
  %call11 = call noundef zeroext i1 @_ZNK13checked_int64ILb1EE6is_negEv(ptr noundef nonnull align 8 dereferenceable(8) %w)
  br i1 %call11, label %if.then12, label %if.end

if.then12:                                        ; preds = %if.else
  %11 = load i32, ptr %num_neg, align 4
  %inc13 = add i32 %11, 1
  store i32 %inc13, ptr %num_neg, align 4
  br label %if.end

if.end:                                           ; preds = %if.then12, %if.else
  br label %if.end14

if.end14:                                         ; preds = %if.end, %if.then
  br label %for.inc

for.inc:                                          ; preds = %if.end14
  %call15 = call noundef nonnull align 8 dereferenceable(12) ptr @_ZN13hilbert_basis8iteratorppEv(ptr noundef nonnull align 8 dereferenceable(12) %it)
  br label %for.cond, !llvm.loop !41

for.end:                                          ; preds = %for.cond
  %12 = load i32, ptr %num_pos, align 4
  %13 = load i32, ptr %num_neg, align 4
  %mul = mul i32 %12, %13
  ret i32 %mul
}