; Function Attrs: mustprogress uwtable
define hidden noundef i32 @_ZN13hilbert_basis16get_ineq_productERK6vectorI13checked_int64ILb1EELb1EjE(ptr nocapture noundef nonnull readonly align 8 dereferenceable(127) %this, ptr nocapture noundef nonnull readonly align 8 dereferenceable(8) %ineq) local_unnamed_addr #3 align 2 {
entry:
  %v = alloca %"class.hilbert_basis::values", align 8
  %m_basis.i = getelementptr inbounds i8, ptr %this, i64 32
  %m_ineqs.i = getelementptr inbounds i8, ptr %this, i64 8
  %m_store.i = getelementptr inbounds i8, ptr %this, i64 24
  br label %for.cond

for.cond:                                         ; preds = %_ZNK13hilbert_basis3vecENS_8offset_tE.exit, %entry
  %it.sroa.2.0 = phi i32 [ 0, %entry ], [ %inc.i, %_ZNK13hilbert_basis3vecENS_8offset_tE.exit ]
  %num_neg.0 = phi i32 [ 0, %entry ], [ %num_neg.1, %_ZNK13hilbert_basis3vecENS_8offset_tE.exit ]
  %num_pos.0 = phi i32 [ 0, %entry ], [ %num_pos.1, %_ZNK13hilbert_basis3vecENS_8offset_tE.exit ]
  %0 = load ptr, ptr %m_basis.i, align 8
  %cmp.i.i = icmp eq ptr %0, null
  br i1 %cmp.i.i, label %_ZNK13hilbert_basis3endEv.exit, label %if.end.i.i

if.end.i.i:                                       ; preds = %for.cond
  %arrayidx.i.i = getelementptr inbounds i8, ptr %0, i64 -4
  %1 = load i32, ptr %arrayidx.i.i, align 4
  br label %_ZNK13hilbert_basis3endEv.exit

_ZNK13hilbert_basis3endEv.exit:                   ; preds = %for.cond, %if.end.i.i
  %retval.0.i.i = phi i32 [ %1, %if.end.i.i ], [ 0, %for.cond ]
  %cmp.i.not = icmp eq i32 %it.sroa.2.0, %retval.0.i.i
  br i1 %cmp.i.not, label %for.end, label %for.body

for.body:                                         ; preds = %_ZNK13hilbert_basis3endEv.exit
  %idxprom.i.i = zext i32 %it.sroa.2.0 to i64
  %arrayidx.i.i7 = getelementptr inbounds %"struct.hilbert_basis::offset_t", ptr %0, i64 %idxprom.i.i
  %retval.sroa.0.0.copyload.i = load i32, ptr %arrayidx.i.i7, align 4
  %2 = load ptr, ptr %m_ineqs.i, align 8
  %cmp.i.i8 = icmp eq ptr %2, null
  br i1 %cmp.i.i8, label %_ZNK13hilbert_basis3vecENS_8offset_tE.exit, label %if.end.i.i9

if.end.i.i9:                                      ; preds = %for.body
  %arrayidx.i.i10 = getelementptr inbounds i8, ptr %2, i64 -4
  %3 = load i32, ptr %arrayidx.i.i10, align 4
  %4 = zext i32 %3 to i64
  br label %_ZNK13hilbert_basis3vecENS_8offset_tE.exit

_ZNK13hilbert_basis3vecENS_8offset_tE.exit:       ; preds = %for.body, %if.end.i.i9
  %retval.0.i.i11 = phi i64 [ %4, %if.end.i.i9 ], [ 0, %for.body ]
  %5 = load ptr, ptr %m_store.i, align 8
  %idx.ext.i = zext i32 %retval.sroa.0.0.copyload.i to i64
  %add.ptr.i = getelementptr inbounds %class.checked_int64, ptr %5, i64 %idx.ext.i
  %add.ptr.i.i = getelementptr inbounds %class.checked_int64, ptr %add.ptr.i, i64 %retval.0.i.i11
  store ptr %add.ptr.i.i, ptr %v, align 8
  %call8 = call i64 @_ZNK13hilbert_basis10get_weightERKNS_6valuesERK6vectorI13checked_int64ILb1EELb1EjE(ptr noundef nonnull align 8 dereferenceable(127) %this, ptr noundef nonnull align 8 dereferenceable(8) %v, ptr noundef nonnull align 8 dereferenceable(8) %ineq)
  %cmp.i12 = icmp sgt i64 %call8, 0
  %call8.lobit = lshr i64 %call8, 63
  %inc13 = trunc i64 %call8.lobit to i32
  %spec.select = select i1 %cmp.i12, i32 0, i32 %inc13
  %num_neg.1 = add i32 %spec.select, %num_neg.0
  %inc = zext i1 %cmp.i12 to i32
  %num_pos.1 = add i32 %num_pos.0, %inc
  %inc.i = add i32 %it.sroa.2.0, 1
  br label %for.cond, !llvm.loop !26

for.end:                                          ; preds = %_ZNK13hilbert_basis3endEv.exit
  %mul = mul i32 %num_pos.0, %num_neg.0
  ret i32 %mul
}